target datalayout = "e-m:e-p270:32:32-p271:32:32-p272:64:64-i64:64-i128:128-f80:128-n8:16:32:64-S128"
target triple = "x86_64-pc-linux-gnu"

%struct.compile_block_8 = type { ptr, ptr, ptr, ptr, ptr, ptr, ptr, ptr, ptr, ptr, i64, [10 x i64], i64, i16, i16, i16, i16, ptr, i32, i32, i32, i32, i32, ptr, ptr, ptr, i32, i32, i32, i32, i32, i32, [4 x i8], i32, i32, i32, i32, i32, i32, i32 }

; Function Attrs: nounwind uwtable
define internal i32 @find_dupname_details(ptr noundef %0, i32 noundef %1, ptr noundef %2, ptr noundef %3, ptr noundef %4, ptr noundef %5) #0 {
  %7 = alloca i32, align 4
  %8 = alloca ptr, align 8
  %9 = alloca i32, align 4
  %10 = alloca ptr, align 8
  %11 = alloca ptr, align 8
  %12 = alloca ptr, align 8
  %13 = alloca ptr, align 8
  %14 = alloca i32, align 4
  %15 = alloca i32, align 4
  %16 = alloca i32, align 4
  %17 = alloca ptr, align 8
  store ptr %0, ptr %8, align 8
  store i32 %1, ptr %9, align 4
  store ptr %2, ptr %10, align 8
  store ptr %3, ptr %11, align 8
  store ptr %4, ptr %12, align 8
  store ptr %5, ptr %13, align 8
  %18 = load ptr, ptr %13, align 8
  %19 = getelementptr inbounds %struct.compile_block_8, ptr %18, i32 0, i32 9
  %20 = load ptr, ptr %19, align 8
  store ptr %20, ptr %17, align 8
  store i32 0, ptr %14, align 4
  br label %21

21:                                               ; preds = %54, %6
  %22 = load i32, ptr %14, align 4
  %23 = load ptr, ptr %13, align 8
  %24 = getelementptr inbounds %struct.compile_block_8, ptr %23, i32 0, i32 13
  %25 = load i16, ptr %24, align 8
  %26 = zext i16 %25 to i32
  %27 = icmp ult i32 %22, %26
  br i1 %27, label %28, label %57

28:                                               ; preds = %21
  %29 = load ptr, ptr %8, align 8
  %30 = load ptr, ptr %17, align 8
  %31 = getelementptr inbounds i8, ptr %30, i64 2
  %32 = load i32, ptr %9, align 4
  %33 = zext i32 %32 to i64
  %34 = call i32 @_pcre2_strncmp_8(ptr noundef %29, ptr noundef %31, i64 noundef %33)
  %35 = icmp eq i32 %34, 0
  br i1 %35, label %36, label %46

36:                                               ; preds = %28
  %37 = load ptr, ptr %17, align 8
  %38 = load i32, ptr %9, align 4
  %39 = add i32 2, %38
  %40 = zext i32 %39 to i64
  %41 = getelementptr inbounds i8, ptr %37, i64 %40
  %42 = load i8, ptr %41, align 1
  %43 = zext i8 %42 to i32
  %44 = icmp eq i32 %43, 0
  br i1 %44, label %45, label %46

45:                                               ; preds = %36
  br label %57

46:                                               ; preds = %36, %28
  %47 = load ptr, ptr %13, align 8
  %48 = getelementptr inbounds %struct.compile_block_8, ptr %47, i32 0, i32 14
  %49 = load i16, ptr %48, align 2
  %50 = zext i16 %49 to i32
  %51 = load ptr, ptr %17, align 8
  %52 = sext i32 %50 to i64
  %53 = getelementptr inbounds i8, ptr %51, i64 %52
  store ptr %53, ptr %17, align 8
  br label %54

54:                                               ; preds = %46
  %55 = load i32, ptr %14, align 4
  %56 = add i32 %55, 1
  store i32 %56, ptr %14, align 4
  br label %21

57:                                               ; preds = %45, %21
  %58 = load i32, ptr %14, align 4
  %59 = load ptr, ptr %13, align 8
  %60 = getelementptr inbounds %struct.compile_block_8, ptr %59, i32 0, i32 13
  %61 = load i16, ptr %60, align 8
  %62 = zext i16 %61 to i32
  %63 = icmp uge i32 %58, %62
  br i1 %63, label %64, label %75

64:                                               ; preds = %57
  %65 = load ptr, ptr %12, align 8
  store i32 153, ptr %65, align 4
  %66 = load ptr, ptr %8, align 8
  %67 = load ptr, ptr %13, align 8
  %68 = getelementptr inbounds %struct.compile_block_8, ptr %67, i32 0, i32 7
  %69 = load ptr, ptr %68, align 8
  %70 = ptrtoint ptr %66 to i64
  %71 = ptrtoint ptr %69 to i64
  %72 = sub i64 %70, %71
  %73 = load ptr, ptr %13, align 8
  %74 = getelementptr inbounds %struct.compile_block_8, ptr %73, i32 0, i32 12
  store i64 %72, ptr %74, align 8
  store i32 0, ptr %7, align 4
  br label %150

75:                                               ; preds = %57
  %76 = load i32, ptr %14, align 4
  %77 = load ptr, ptr %10, align 8
  store i32 %76, ptr %77, align 4
  store i32 0, ptr %16, align 4
  br label %78

78:                                               ; preds = %146, %75
  %79 = load i32, ptr %16, align 4
  %80 = add nsw i32 %79, 1
  store i32 %80, ptr %16, align 4
  %81 = load ptr, ptr %17, align 8
  %82 = getelementptr inbounds i8, ptr %81, i64 0
  %83 = load i8, ptr %82, align 1
  %84 = zext i8 %83 to i32
  %85 = shl i32 %84, 8
  %86 = load ptr, ptr %17, align 8
  %87 = getelementptr inbounds i8, ptr %86, i64 1
  %88 = load i8, ptr %87, align 1
  %89 = zext i8 %88 to i32
  %90 = or i32 %85, %89
  store i32 %90, ptr %15, align 4
  %91 = load i32, ptr %15, align 4
  %92 = icmp ult i32 %91, 32
  br i1 %92, label %93, label %96

93:                                               ; preds = %78
  %94 = load i32, ptr %15, align 4
  %95 = shl i32 1, %94
  br label %97

96:                                               ; preds = %78
  br label %97

97:                                               ; preds = %96, %93
  %98 = phi i32 [ %95, %93 ], [ 1, %96 ]
  %99 = load ptr, ptr %13, align 8
  %100 = getelementptr inbounds %struct.compile_block_8, ptr %99, i32 0, i32 27
  %101 = load i32, ptr %100, align 4
  %102 = or i32 %101, %98
  store i32 %102, ptr %100, align 4
  %103 = load i32, ptr %15, align 4
  %104 = load ptr, ptr %13, align 8
  %105 = getelementptr inbounds %struct.compile_block_8, ptr %104, i32 0, i32 26
  %106 = load i32, ptr %105, align 8
  %107 = icmp ugt i32 %103, %106
  br i1 %107, label %108, label %112

108:                                              ; preds = %97
  %109 = load i32, ptr %15, align 4
  %110 = load ptr, ptr %13, align 8
  %111 = getelementptr inbounds %struct.compile_block_8, ptr %110, i32 0, i32 26
  store i32 %109, ptr %111, align 8
  br label %112

112:                                              ; preds = %108, %97
  %113 = load i32, ptr %14, align 4
  %114 = add i32 %113, 1
  store i32 %114, ptr %14, align 4
  %115 = load ptr, ptr %13, align 8
  %116 = getelementptr inbounds %struct.compile_block_8, ptr %115, i32 0, i32 13
  %117 = load i16, ptr %116, align 8
  %118 = zext i16 %117 to i32
  %119 = icmp uge i32 %114, %118
  br i1 %119, label %120, label %121

120:                                              ; preds = %112
  br label %147

121:                                              ; preds = %112
  %122 = load ptr, ptr %13, align 8
  %123 = getelementptr inbounds %struct.compile_block_8, ptr %122, i32 0, i32 14
  %124 = load i16, ptr %123, align 2
  %125 = zext i16 %124 to i32
  %126 = load ptr, ptr %17, align 8
  %127 = sext i32 %125 to i64
  %128 = getelementptr inbounds i8, ptr %126, i64 %127
  store ptr %128, ptr %17, align 8
  %129 = load ptr, ptr %8, align 8
  %130 = load ptr, ptr %17, align 8
  %131 = getelementptr inbounds i8, ptr %130, i64 2
  %132 = load i32, ptr %9, align 4
  %133 = zext i32 %132 to i64
  %134 = call i32 @_pcre2_strncmp_8(ptr noundef %129, ptr noundef %131, i64 noundef %133)
  %135 = icmp ne i32 %134, 0
  br i1 %135, label %145, label %136

136:                                              ; preds = %121
  %137 = load ptr, ptr %17, align 8
  %138 = getelementptr inbounds i8, ptr %137, i64 2
  %139 = load i32, ptr %9, align 4
  %140 = zext i32 %139 to i64
  %141 = getelementptr inbounds i8, ptr %138, i64 %140
  %142 = load i8, ptr %141, align 1
  %143 = zext i8 %142 to i32
  %144 = icmp ne i32 %143, 0
  br i1 %144, label %145, label %146

145:                                              ; preds = %136, %121
  br label %147

146:                                              ; preds = %136
  br label %78

147:                                              ; preds = %145, %120
  %148 = load i32, ptr %16, align 4
  %149 = load ptr, ptr %11, align 8
  store i32 %148, ptr %149, align 4
  store i32 1, ptr %7, align 4
  br label %150

150:                                              ; preds = %147, %64
  %151 = load i32, ptr %7, align 4
  ret i32 %151
}