; Function Attrs: nounwind uwtable
define internal fastcc noundef i32 @find_dupname_details(ptr noundef %0, i32 noundef %1, ptr nocapture noundef writeonly %2, ptr nocapture noundef writeonly %3, ptr nocapture noundef writeonly %4, ptr nocapture noundef %5) unnamed_addr #0 {
  %7 = add i32 %1, 2
  %8 = zext i32 %7 to i64
  %9 = getelementptr inbounds i8, ptr %5, i64 176
  %10 = load i16, ptr %9, align 8
  %.not56 = icmp eq i16 %10, 0
  br i1 %.not56, label %._crit_edge.thread, label %.lr.ph

.lr.ph:                                           ; preds = %6
  %11 = getelementptr inbounds i8, ptr %5, i64 72
  %12 = load ptr, ptr %11, align 8
  %13 = zext i32 %1 to i64
  %14 = getelementptr inbounds i8, ptr %5, i64 178
  br label %15

15:                                               ; preds = %.lr.ph, %23
  %.051 = phi ptr [ %12, %.lr.ph ], [ %26, %23 ]
  %.04250 = phi i32 [ 0, %.lr.ph ], [ %27, %23 ]
  %16 = getelementptr inbounds i8, ptr %.051, i64 2
  %17 = tail call i32 @_pcre2_strncmp_8(ptr noundef %0, ptr noundef nonnull %16, i64 noundef %13) #16
  %18 = icmp eq i32 %17, 0
  br i1 %18, label %19, label %23

19:                                               ; preds = %15
  %20 = getelementptr inbounds i8, ptr %.051, i64 %8
  %21 = load i8, ptr %20, align 1
  %22 = icmp eq i8 %21, 0
  br i1 %22, label %.._crit_edge.loopexit_crit_edge, label %23

.._crit_edge.loopexit_crit_edge:                  ; preds = %19
  %.pre.pre = load i16, ptr %9, align 8
  br label %._crit_edge

23:                                               ; preds = %19, %15
  %24 = load i16, ptr %14, align 2
  %25 = zext i16 %24 to i64
  %26 = getelementptr inbounds i8, ptr %.051, i64 %25
  %27 = add nuw nsw i32 %.04250, 1
  %28 = load i16, ptr %9, align 8
  %29 = zext i16 %28 to i32
  %30 = icmp ult i32 %27, %29
  br i1 %30, label %15, label %._crit_edge

._crit_edge:                                      ; preds = %23, %.._crit_edge.loopexit_crit_edge
  %.pre = phi i16 [ %.pre.pre, %.._crit_edge.loopexit_crit_edge ], [ %28, %23 ]
  %.042.lcssa.ph = phi i32 [ %.04250, %.._crit_edge.loopexit_crit_edge ], [ %27, %23 ]
  %.0.lcssa.ph = phi ptr [ %.051, %.._crit_edge.loopexit_crit_edge ], [ %26, %23 ]
  %31 = zext i16 %.pre to i32
  %.not = icmp ult i32 %.042.lcssa.ph, %31
  br i1 %.not, label %38, label %._crit_edge.thread

._crit_edge.thread:                               ; preds = %6, %._crit_edge
  store i32 153, ptr %4, align 4
  %32 = getelementptr inbounds i8, ptr %5, i64 56
  %33 = load ptr, ptr %32, align 8
  %34 = ptrtoint ptr %0 to i64
  %35 = ptrtoint ptr %33 to i64
  %36 = sub i64 %34, %35
  %37 = getelementptr inbounds i8, ptr %5, i64 168
  store i64 %36, ptr %37, align 8
  br label %74

38:                                               ; preds = %._crit_edge
  store i32 %.042.lcssa.ph, ptr %2, align 4
  %39 = getelementptr inbounds i8, ptr %5, i64 178
  %40 = getelementptr inbounds i8, ptr %5, i64 244
  %41 = getelementptr inbounds i8, ptr %5, i64 240
  %42 = zext i32 %1 to i64
  br label %43

43:                                               ; preds = %70, %38
  %.143 = phi i32 [ %.042.lcssa.ph, %38 ], [ %61, %70 ]
  %.040 = phi i32 [ 0, %38 ], [ %44, %70 ]
  %.1 = phi ptr [ %.0.lcssa.ph, %38 ], [ %67, %70 ]
  %44 = add nuw nsw i32 %.040, 1
  %45 = load i8, ptr %.1, align 1
  %46 = zext i8 %45 to i32
  %47 = shl nuw nsw i32 %46, 8
  %48 = getelementptr inbounds i8, ptr %.1, i64 1
  %49 = load i8, ptr %48, align 1
  %50 = zext i8 %49 to i32
  %51 = or disjoint i32 %47, %50
  %52 = icmp ult i32 %51, 32
  %53 = shl nuw i32 1, %51
  %54 = select i1 %52, i32 %53, i32 1
  %55 = load i32, ptr %40, align 4
  %56 = or i32 %54, %55
  store i32 %56, ptr %40, align 4
  %57 = load i32, ptr %41, align 8
  %58 = icmp ugt i32 %51, %57
  br i1 %58, label %59, label %60

59:                                               ; preds = %43
  store i32 %51, ptr %41, align 8
  br label %60

60:                                               ; preds = %59, %43
  %61 = add nuw nsw i32 %.143, 1
  %62 = load i16, ptr %9, align 8
  %63 = zext i16 %62 to i32
  %.not46 = icmp ult i32 %61, %63
  br i1 %.not46, label %64, label %73

64:                                               ; preds = %60
  %65 = load i16, ptr %39, align 2
  %66 = zext i16 %65 to i64
  %67 = getelementptr inbounds i8, ptr %.1, i64 %66
  %68 = getelementptr inbounds i8, ptr %67, i64 2
  %69 = tail call i32 @_pcre2_strncmp_8(ptr noundef %0, ptr noundef nonnull %68, i64 noundef %42) #16
  %.not47 = icmp eq i32 %69, 0
  br i1 %.not47, label %70, label %73

70:                                               ; preds = %64
  %71 = getelementptr inbounds i8, ptr %68, i64 %42
  %72 = load i8, ptr %71, align 1
  %.not48 = icmp eq i8 %72, 0
  br i1 %.not48, label %43, label %73

73:                                               ; preds = %64, %70, %60
  store i32 %44, ptr %3, align 4
  br label %74

74:                                               ; preds = %73, %._crit_edge.thread
  %.041 = phi i32 [ 0, %._crit_edge.thread ], [ 1, %73 ]
  ret i32 %.041
}